; Function Attrs: mustprogress uwtable
define internal noundef i32 @_ZL17unistrTextReplaceP5UTextllPKDsiP10UErrorCode(ptr nocapture noundef %ut, i64 noundef %start, i64 noundef %limit, ptr noundef %src, i32 noundef %length, ptr nocapture noundef %pErrorCode) #0 personality ptr @__gxx_personality_v0 {
entry:
  %context = getelementptr inbounds i8, ptr %ut, i64 72
  %0 = load ptr, ptr %context, align 8
  %1 = load i32, ptr %pErrorCode, align 4
  %cmp.i = icmp slt i32 %1, 1
  br i1 %cmp.i, label %if.end, label %return

if.end:                                           ; preds = %entry
  %cmp = icmp eq ptr %src, null
  %cmp1 = icmp ne i32 %length, 0
  %or.cond = and i1 %cmp, %cmp1
  br i1 %or.cond, label %if.then2, label %if.end3

if.then2:                                         ; preds = %if.end
  store i32 1, ptr %pErrorCode, align 4
  br label %if.end3

if.end3:                                          ; preds = %if.then2, %if.end
  %cmp4 = icmp sgt i64 %start, %limit
  br i1 %cmp4, label %if.then5, label %if.end6

if.then5:                                         ; preds = %if.end3
  store i32 8, ptr %pErrorCode, align 4
  br label %return

if.end6:                                          ; preds = %if.end3
  %fUnion.i.i = getelementptr inbounds i8, ptr %0, i64 8
  %2 = load i16, ptr %fUnion.i.i, align 8
  %cmp.i.i = icmp slt i16 %2, 0
  %3 = ashr i16 %2, 5
  %shr.i.i = sext i16 %3 to i32
  %fLength.i = getelementptr inbounds i8, ptr %0, i64 12
  %4 = load i32, ptr %fLength.i, align 4
  %cond.i = select i1 %cmp.i.i, i32 %4, i32 %shr.i.i
  %conv = sext i32 %cond.i to i64
  %cmp.i29 = icmp slt i64 %start, 0
  %spec.select = tail call i64 @llvm.smin.i64(i64 %conv, i64 %start)
  %5 = trunc i64 %spec.select to i32
  %conv.i30 = select i1 %cmp.i29, i32 0, i32 %5
  %cmp.i31 = icmp slt i64 %limit, 0
  %spec.select49 = tail call i64 @llvm.smin.i64(i64 %conv, i64 %limit)
  %6 = trunc i64 %spec.select49 to i32
  %conv.i34 = select i1 %cmp.i31, i32 0, i32 %6
  %cmp11 = icmp slt i32 %conv.i30, %cond.i
  br i1 %cmp11, label %if.then12, label %if.end14

if.then12:                                        ; preds = %if.end6
  %call13 = tail call noundef i32 @_ZNK6icu_7513UnicodeString14getChar32StartEi(ptr noundef nonnull align 8 dereferenceable(64) %0, i32 noundef %conv.i30)
  br label %if.end14

if.end14:                                         ; preds = %if.then12, %if.end6
  %start32.0 = phi i32 [ %call13, %if.then12 ], [ %conv.i30, %if.end6 ]
  %cmp15 = icmp slt i32 %conv.i34, %cond.i
  br i1 %cmp15, label %if.then16, label %if.end18

if.then16:                                        ; preds = %if.end14
  %call17 = tail call noundef i32 @_ZNK6icu_7513UnicodeString14getChar32StartEi(ptr noundef nonnull align 8 dereferenceable(64) %0, i32 noundef %conv.i34)
  br label %if.end18

if.end18:                                         ; preds = %if.then16, %if.end14
  %limit32.0 = phi i32 [ %call17, %if.then16 ], [ %conv.i34, %if.end14 ]
  %sub = sub nsw i32 %limit32.0, %start32.0
  %call2.i38 = invoke noundef nonnull align 8 dereferenceable(64) ptr @_ZN6icu_7513UnicodeString9doReplaceEiiPKDsii(ptr noundef nonnull align 8 dereferenceable(64) %0, i32 noundef %start32.0, i32 noundef %sub, ptr noundef %src, i32 noundef 0, i32 noundef %length)
          to label %invoke.cont unwind label %lpad

invoke.cont:                                      ; preds = %if.end18
  tail call void asm sideeffect "", "rm,~{memory},~{dirflag},~{fpsr},~{flags}"(ptr %src) #14, !srcloc !17
  %7 = load i16, ptr %fUnion.i.i, align 8
  %cmp.i.i40 = icmp slt i16 %7, 0
  %8 = ashr i16 %7, 5
  %shr.i.i41 = sext i16 %8 to i32
  %9 = load i32, ptr %fLength.i, align 4
  %cond.i43 = select i1 %cmp.i.i40, i32 %9, i32 %shr.i.i41
  %conv1.i = zext i16 %7 to i32
  %and.i = and i32 %conv1.i, 17
  %tobool.not.i = icmp eq i32 %and.i, 0
  br i1 %tobool.not.i, label %if.else.i44, label %_ZNK6icu_7513UnicodeString9getBufferEv.exit

if.else.i44:                                      ; preds = %invoke.cont
  %and5.i = and i32 %conv1.i, 2
  %tobool6.not.i = icmp eq i32 %and5.i, 0
  br i1 %tobool6.not.i, label %if.else9.i, label %if.then7.i

if.then7.i:                                       ; preds = %if.else.i44
  %fBuffer.i = getelementptr inbounds i8, ptr %0, i64 10
  br label %_ZNK6icu_7513UnicodeString9getBufferEv.exit

if.else9.i:                                       ; preds = %if.else.i44
  %fArray.i = getelementptr inbounds i8, ptr %0, i64 24
  %10 = load ptr, ptr %fArray.i, align 8
  br label %_ZNK6icu_7513UnicodeString9getBufferEv.exit

_ZNK6icu_7513UnicodeString9getBufferEv.exit:      ; preds = %invoke.cont, %if.then7.i, %if.else9.i
  %retval.0.i = phi ptr [ %fBuffer.i, %if.then7.i ], [ %10, %if.else9.i ], [ null, %invoke.cont ]
  %chunkContents = getelementptr inbounds i8, ptr %ut, i64 48
  store ptr %retval.0.i, ptr %chunkContents, align 8
  %chunkLength = getelementptr inbounds i8, ptr %ut, i64 44
  store i32 %cond.i43, ptr %chunkLength, align 4
  %conv22 = sext i32 %cond.i43 to i64
  %chunkNativeLimit = getelementptr inbounds i8, ptr %ut, i64 16
  store i64 %conv22, ptr %chunkNativeLimit, align 8
  %nativeIndexingLimit = getelementptr inbounds i8, ptr %ut, i64 28
  store i32 %cond.i43, ptr %nativeIndexingLimit, align 4
  %sub23 = sub nsw i32 %cond.i43, %cond.i
  %add = add nsw i32 %sub23, %limit32.0
  %chunkOffset = getelementptr inbounds i8, ptr %ut, i64 40
  store i32 %add, ptr %chunkOffset, align 8
  br label %return

lpad:                                             ; preds = %if.end18
  %11 = landingpad { ptr, i32 }
          cleanup
  tail call void asm sideeffect "", "rm,~{memory},~{dirflag},~{fpsr},~{flags}"(ptr %src) #14, !srcloc !17
  resume { ptr, i32 } %11

return:                                           ; preds = %entry, %_ZNK6icu_7513UnicodeString9getBufferEv.exit, %if.then5
  %retval.0 = phi i32 [ 0, %if.then5 ], [ %sub23, %_ZNK6icu_7513UnicodeString9getBufferEv.exit ], [ 0, %entry ]
  ret i32 %retval.0
}